target datalayout = "e-m:e-p270:32:32-p271:32:32-p272:64:64-i64:64-i128:128-f80:128-n8:16:32:64-S128"
target triple = "x86_64-pc-linux-gnu"

%struct.rb_ifaddr_tag = type { i32, ptr }
%struct.rb_ifaddr_root_tag = type { i32, i32, [1 x %struct.rb_ifaddr_tag] }

; Function Attrs: nounwind sspstrong uwtable
define internal ptr @get_root(ptr noundef %0) #0 {
  %2 = alloca ptr, align 8
  store ptr %0, ptr %2, align 8, !tbaa !28
  %3 = load ptr, ptr %2, align 8, !tbaa !28
  %4 = load ptr, ptr %2, align 8, !tbaa !28
  %5 = getelementptr inbounds nuw %struct.rb_ifaddr_tag, ptr %4, i32 0, i32 0
  %6 = load i32, ptr %5, align 8, !tbaa !35
  %7 = sub nsw i32 0, %6
  %8 = sext i32 %7 to i64
  %9 = getelementptr inbounds %struct.rb_ifaddr_tag, ptr %3, i64 %8
  %10 = getelementptr inbounds i8, ptr %9, i64 -8
  ret ptr %10
}

; Function Attrs: nounwind sspstrong uwtable
define internal void @ifaddr_free(ptr noundef %0) #0 {
  %2 = alloca ptr, align 8
  %3 = alloca ptr, align 8
  %4 = alloca ptr, align 8
  store ptr %0, ptr %2, align 8, !tbaa !30
  call void @llvm.lifetime.start.p0(i64 8, ptr %3) #10
  %5 = load ptr, ptr %2, align 8, !tbaa !30
  store ptr %5, ptr %3, align 8, !tbaa !28
  call void @llvm.lifetime.start.p0(i64 8, ptr %4) #10
  %6 = load ptr, ptr %3, align 8, !tbaa !28
  %7 = call ptr @get_root(ptr noundef %6)
  store ptr %7, ptr %4, align 8, !tbaa !31
  %8 = load ptr, ptr %4, align 8, !tbaa !31
  %9 = getelementptr inbounds nuw %struct.rb_ifaddr_root_tag, ptr %8, i32 0, i32 0
  %10 = load i32, ptr %9, align 8, !tbaa !33
  %11 = add nsw i32 %10, -1
  store i32 %11, ptr %9, align 8, !tbaa !33
  %12 = load ptr, ptr %4, align 8, !tbaa !31
  %13 = getelementptr inbounds nuw %struct.rb_ifaddr_root_tag, ptr %12, i32 0, i32 0
  %14 = load i32, ptr %13, align 8, !tbaa !33
  %15 = icmp eq i32 %14, 0
  br i1 %15, label %16, label %23

16:                                               ; preds = %1
  %17 = load ptr, ptr %4, align 8, !tbaa !31
  %18 = getelementptr inbounds nuw %struct.rb_ifaddr_root_tag, ptr %17, i32 0, i32 2
  %19 = getelementptr inbounds [1 x %struct.rb_ifaddr_tag], ptr %18, i64 0, i64 0
  %20 = getelementptr inbounds nuw %struct.rb_ifaddr_tag, ptr %19, i32 0, i32 1
  %21 = load ptr, ptr %20, align 8, !tbaa !23
  call void @freeifaddrs(ptr noundef %21) #10
  %22 = load ptr, ptr %4, align 8, !tbaa !31
  call void @ruby_xfree(ptr noundef %22)
  br label %23

23:                                               ; preds = %16, %1
  call void @llvm.lifetime.end.p0(i64 8, ptr %4) #10
  call void @llvm.lifetime.end.p0(i64 8, ptr %3) #10
  ret void
}