; Function Attrs: nounwind sspstrong uwtable
define internal void @ifaddr_free(ptr noundef %0) #0 {
  %2 = load i32, ptr %0, align 8, !tbaa !30
  %3 = sub nsw i32 0, %2
  %4 = sext i32 %3 to i64
  %5 = getelementptr inbounds %struct.rb_ifaddr_tag, ptr %0, i64 %4
  %6 = getelementptr inbounds i8, ptr %5, i64 -8
  %7 = load i32, ptr %6, align 8, !tbaa !36
  %8 = add nsw i32 %7, -1
  store i32 %8, ptr %6, align 8, !tbaa !36
  %9 = icmp eq i32 %8, 0
  br i1 %9, label %10, label %13

10:                                               ; preds = %1
  %11 = getelementptr inbounds nuw i8, ptr %5, i64 8
  %12 = load ptr, ptr %11, align 8, !tbaa !10
  tail call void @freeifaddrs(ptr noundef %12) #7
  tail call void @ruby_xfree(ptr noundef nonnull %6) #7
  br label %13

13:                                               ; preds = %10, %1
  ret void
}